; Function Attrs: mustprogress nofree norecurse nosync nounwind willreturn memory(read, inaccessiblemem: none) uwtable
define hidden noundef zeroext i1 @_ZNK14arith_rewriter13is_arith_termEP4expr(ptr nocapture noundef nonnull readnone align 8 dereferenceable(96) %this, ptr nocapture noundef readonly %n) local_unnamed_addr #5 align 2 {
entry:
  %m_kind.i = getelementptr inbounds i8, ptr %n, i64 4
  %bf.load.i = load i32, ptr %m_kind.i, align 4
  %bf.clear.i = and i32 %bf.load.i, 65535
  %cmp = icmp eq i32 %bf.clear.i, 0
  br i1 %cmp, label %land.rhs, label %land.end

land.rhs:                                         ; preds = %entry
  %m_decl.i.i = getelementptr inbounds i8, ptr %n, i64 16
  %0 = load ptr, ptr %m_decl.i.i, align 8
  %m_info.i.i = getelementptr inbounds i8, ptr %0, i64 24
  %1 = load ptr, ptr %m_info.i.i, align 8
  %cmp.i.i = icmp eq ptr %1, null
  br i1 %cmp.i.i, label %land.end, label %cond.false.i.i

cond.false.i.i:                                   ; preds = %land.rhs
  %2 = load i32, ptr %1, align 8
  %3 = icmp eq i32 %2, 5
  br label %land.end

land.end:                                         ; preds = %cond.false.i.i, %land.rhs, %entry
  %4 = phi i1 [ false, %entry ], [ %3, %cond.false.i.i ], [ false, %land.rhs ]
  ret i1 %4
}